target datalayout = "e-m:e-p270:32:32-p271:32:32-p272:64:64-i64:64-i128:128-f80:128-n8:16:32:64-S128"
target triple = "x86_64-pc-linux-gnu"

%struct._value_string = type { i32, ptr }
%struct._Kind = type { ptr, i32, i32 }

@.str.845 = private unnamed_addr constant [7 x i8] c"string\00", align 1

; Function Attrs: null_pointer_is_valid sspstrong uwtable
define internal void @kindidlist_uats_data_model_tostr_cb(ptr noundef %0, ptr noundef %1, ptr noundef %2, ptr noundef %3, ptr noundef %4) #0 {
  %6 = alloca ptr, align 8
  %7 = alloca ptr, align 8
  %8 = alloca ptr, align 8
  %9 = alloca ptr, align 8
  %10 = alloca ptr, align 8
  %11 = alloca i32, align 4
  %12 = alloca i32, align 4
  store ptr %0, ptr %6, align 8
  store ptr %1, ptr %7, align 8
  store ptr %2, ptr %8, align 8
  store ptr %3, ptr %9, align 8
  store ptr %4, ptr %10, align 8
  call void @llvm.lifetime.start.p0(i64 4, ptr %11) #8
  store i32 0, ptr %11, align 4
  br label %13

13:                                               ; preds = %47, %5
  %14 = load ptr, ptr %9, align 8
  %15 = load i32, ptr %11, align 4
  %16 = zext i32 %15 to i64
  %17 = getelementptr %struct._value_string, ptr %14, i64 %16
  %18 = getelementptr inbounds nuw %struct._value_string, ptr %17, i32 0, i32 1
  %19 = load ptr, ptr %18, align 8
  %20 = icmp ne ptr %19, null
  br i1 %20, label %21, label %50

21:                                               ; preds = %13
  %22 = load ptr, ptr %9, align 8
  %23 = load i32, ptr %11, align 4
  %24 = zext i32 %23 to i64
  %25 = getelementptr %struct._value_string, ptr %22, i64 %24
  %26 = getelementptr inbounds nuw %struct._value_string, ptr %25, i32 0, i32 0
  %27 = load i32, ptr %26, align 8
  %28 = load ptr, ptr %6, align 8
  %29 = getelementptr inbounds nuw %struct._Kind, ptr %28, i32 0, i32 2
  %30 = load i32, ptr %29, align 4
  %31 = icmp eq i32 %27, %30
  br i1 %31, label %32, label %46

32:                                               ; preds = %21
  %33 = load ptr, ptr %9, align 8
  %34 = load i32, ptr %11, align 4
  %35 = zext i32 %34 to i64
  %36 = getelementptr %struct._value_string, ptr %33, i64 %35
  %37 = getelementptr inbounds nuw %struct._value_string, ptr %36, i32 0, i32 1
  %38 = load ptr, ptr %37, align 8
  %39 = call noalias ptr @g_strdup(ptr noundef %38)
  %40 = load ptr, ptr %7, align 8
  store ptr %39, ptr %40, align 8
  %41 = load ptr, ptr %7, align 8
  %42 = load ptr, ptr %41, align 8
  %43 = call i64 @strlen(ptr noundef %42) #9
  %44 = trunc i64 %43 to i32
  %45 = load ptr, ptr %8, align 8
  store i32 %44, ptr %45, align 4
  store i32 1, ptr %12, align 4
  br label %54

46:                                               ; preds = %21
  br label %47

47:                                               ; preds = %46
  %48 = load i32, ptr %11, align 4
  %49 = add i32 %48, 1
  store i32 %49, ptr %11, align 4
  br label %13, !llvm.loop !25

50:                                               ; preds = %13
  %51 = call noalias ptr @g_strdup(ptr noundef @.str.845)
  %52 = load ptr, ptr %7, align 8
  store ptr %51, ptr %52, align 8
  %53 = load ptr, ptr %8, align 8
  store i32 6, ptr %53, align 4
  store i32 0, ptr %12, align 4
  br label %54

54:                                               ; preds = %50, %32
  call void @llvm.lifetime.end.p0(i64 4, ptr %11) #8
  %55 = load i32, ptr %12, align 4
  switch i32 %55, label %57 [
    i32 0, label %56
    i32 1, label %56
  ]

56:                                               ; preds = %54, %54
  ret void

57:                                               ; preds = %54
  unreachable
}